target datalayout = "e-m:e-p270:32:32-p271:32:32-p272:64:64-i64:64-i128:128-f80:128-n8:16:32:64-S128"
target triple = "x86_64-unknown-linux-gnu"

%struct.QGuestAllocator = type { i32, i64, i64, i32, ptr, ptr }
%struct.MemBlock = type { %union.anon, i64, i64 }
%union.anon = type { %struct.QTailQLink }
%struct.QTailQLink = type { ptr, ptr }

; Function Attrs: nounwind sspstrong uwtable
define internal ptr @mlist_new(i64 noundef %addr, i64 noundef %size) #0 {
entry:
  %retval = alloca ptr, align 8
  %addr.addr = alloca i64, align 8
  %size.addr = alloca i64, align 8
  %block = alloca ptr, align 8
  store i64 %addr, ptr %addr.addr, align 8
  store i64 %size, ptr %size.addr, align 8
  %0 = load i64, ptr %size.addr, align 8
  %tobool = icmp ne i64 %0, 0
  br i1 %tobool, label %if.end, label %if.then

if.then:                                          ; preds = %entry
  store ptr null, ptr %retval, align 8
  br label %return

if.end:                                           ; preds = %entry
  %call = call noalias ptr @g_malloc0_n(i64 noundef 1, i64 noundef 32) #5
  store ptr %call, ptr %block, align 8
  %1 = load i64, ptr %addr.addr, align 8
  %2 = load ptr, ptr %block, align 8
  %addr1 = getelementptr inbounds %struct.MemBlock, ptr %2, i32 0, i32 2
  store i64 %1, ptr %addr1, align 8
  %3 = load i64, ptr %size.addr, align 8
  %4 = load ptr, ptr %block, align 8
  %size2 = getelementptr inbounds %struct.MemBlock, ptr %4, i32 0, i32 1
  store i64 %3, ptr %size2, align 8
  %5 = load ptr, ptr %block, align 8
  store ptr %5, ptr %retval, align 8
  br label %return

return:                                           ; preds = %if.end, %if.then
  %6 = load ptr, ptr %retval, align 8
  ret ptr %6
}

; Function Attrs: nounwind sspstrong uwtable
define dso_local void @alloc_init(ptr noundef %s, i32 noundef %opts, i64 noundef %start, i64 noundef %end, i64 noundef %page_size) #0 {
entry:
  %s.addr = alloca ptr, align 8
  %opts.addr = alloca i32, align 4
  %start.addr = alloca i64, align 8
  %end.addr = alloca i64, align 8
  %page_size.addr = alloca i64, align 8
  %node = alloca ptr, align 8
  store ptr %s, ptr %s.addr, align 8
  store i32 %opts, ptr %opts.addr, align 4
  store i64 %start, ptr %start.addr, align 8
  store i64 %end, ptr %end.addr, align 8
  store i64 %page_size, ptr %page_size.addr, align 8
  %0 = load i32, ptr %opts.addr, align 4
  %1 = load ptr, ptr %s.addr, align 8
  %opts1 = getelementptr inbounds %struct.QGuestAllocator, ptr %1, i32 0, i32 0
  store i32 %0, ptr %opts1, align 8
  %2 = load i64, ptr %start.addr, align 8
  %3 = load ptr, ptr %s.addr, align 8
  %start2 = getelementptr inbounds %struct.QGuestAllocator, ptr %3, i32 0, i32 1
  store i64 %2, ptr %start2, align 8
  %4 = load i64, ptr %end.addr, align 8
  %5 = load ptr, ptr %s.addr, align 8
  %end3 = getelementptr inbounds %struct.QGuestAllocator, ptr %5, i32 0, i32 2
  store i64 %4, ptr %end3, align 8
  %call = call noalias ptr @g_malloc_n(i64 noundef 1, i64 noundef 16) #5
  %6 = load ptr, ptr %s.addr, align 8
  %used = getelementptr inbounds %struct.QGuestAllocator, ptr %6, i32 0, i32 4
  store ptr %call, ptr %used, align 8
  %call4 = call noalias ptr @g_malloc_n(i64 noundef 1, i64 noundef 16) #5
  %7 = load ptr, ptr %s.addr, align 8
  %free = getelementptr inbounds %struct.QGuestAllocator, ptr %7, i32 0, i32 5
  store ptr %call4, ptr %free, align 8
  br label %do.body

do.body:                                          ; preds = %entry
  %8 = load ptr, ptr %s.addr, align 8
  %used5 = getelementptr inbounds %struct.QGuestAllocator, ptr %8, i32 0, i32 4
  %9 = load ptr, ptr %used5, align 8
  store ptr null, ptr %9, align 8
  %10 = load ptr, ptr %s.addr, align 8
  %used6 = getelementptr inbounds %struct.QGuestAllocator, ptr %10, i32 0, i32 4
  %11 = load ptr, ptr %used6, align 8
  %12 = load ptr, ptr %s.addr, align 8
  %used7 = getelementptr inbounds %struct.QGuestAllocator, ptr %12, i32 0, i32 4
  %13 = load ptr, ptr %used7, align 8
  %tql_prev = getelementptr inbounds %struct.QTailQLink, ptr %13, i32 0, i32 1
  store ptr %11, ptr %tql_prev, align 8
  br label %do.end

do.end:                                           ; preds = %do.body
  br label %do.body8

do.body8:                                         ; preds = %do.end
  %14 = load ptr, ptr %s.addr, align 8
  %free9 = getelementptr inbounds %struct.QGuestAllocator, ptr %14, i32 0, i32 5
  %15 = load ptr, ptr %free9, align 8
  store ptr null, ptr %15, align 8
  %16 = load ptr, ptr %s.addr, align 8
  %free10 = getelementptr inbounds %struct.QGuestAllocator, ptr %16, i32 0, i32 5
  %17 = load ptr, ptr %free10, align 8
  %18 = load ptr, ptr %s.addr, align 8
  %free11 = getelementptr inbounds %struct.QGuestAllocator, ptr %18, i32 0, i32 5
  %19 = load ptr, ptr %free11, align 8
  %tql_prev12 = getelementptr inbounds %struct.QTailQLink, ptr %19, i32 0, i32 1
  store ptr %17, ptr %tql_prev12, align 8
  br label %do.end13

do.end13:                                         ; preds = %do.body8
  %20 = load ptr, ptr %s.addr, align 8
  %start14 = getelementptr inbounds %struct.QGuestAllocator, ptr %20, i32 0, i32 1
  %21 = load i64, ptr %start14, align 8
  %22 = load ptr, ptr %s.addr, align 8
  %end15 = getelementptr inbounds %struct.QGuestAllocator, ptr %22, i32 0, i32 2
  %23 = load i64, ptr %end15, align 8
  %24 = load ptr, ptr %s.addr, align 8
  %start16 = getelementptr inbounds %struct.QGuestAllocator, ptr %24, i32 0, i32 1
  %25 = load i64, ptr %start16, align 8
  %sub = sub i64 %23, %25
  %call17 = call ptr @mlist_new(i64 noundef %21, i64 noundef %sub)
  store ptr %call17, ptr %node, align 8
  br label %do.body18

do.body18:                                        ; preds = %do.end13
  %26 = load ptr, ptr %s.addr, align 8
  %free19 = getelementptr inbounds %struct.QGuestAllocator, ptr %26, i32 0, i32 5
  %27 = load ptr, ptr %free19, align 8
  %28 = load ptr, ptr %27, align 8
  %29 = load ptr, ptr %node, align 8
  %MLIST_ENTNAME = getelementptr inbounds %struct.MemBlock, ptr %29, i32 0, i32 0
  store ptr %28, ptr %MLIST_ENTNAME, align 8
  %cmp = icmp ne ptr %28, null
  br i1 %cmp, label %if.then, label %if.else

if.then:                                          ; preds = %do.body18
  %30 = load ptr, ptr %node, align 8
  %MLIST_ENTNAME20 = getelementptr inbounds %struct.MemBlock, ptr %30, i32 0, i32 0
  %31 = load ptr, ptr %s.addr, align 8
  %free21 = getelementptr inbounds %struct.QGuestAllocator, ptr %31, i32 0, i32 5
  %32 = load ptr, ptr %free21, align 8
  %33 = load ptr, ptr %32, align 8
  %MLIST_ENTNAME22 = getelementptr inbounds %struct.MemBlock, ptr %33, i32 0, i32 0
  %tql_prev23 = getelementptr inbounds %struct.QTailQLink, ptr %MLIST_ENTNAME22, i32 0, i32 1
  store ptr %MLIST_ENTNAME20, ptr %tql_prev23, align 8
  br label %if.end

if.else:                                          ; preds = %do.body18
  %34 = load ptr, ptr %node, align 8
  %MLIST_ENTNAME24 = getelementptr inbounds %struct.MemBlock, ptr %34, i32 0, i32 0
  %35 = load ptr, ptr %s.addr, align 8
  %free25 = getelementptr inbounds %struct.QGuestAllocator, ptr %35, i32 0, i32 5
  %36 = load ptr, ptr %free25, align 8
  %tql_prev26 = getelementptr inbounds %struct.QTailQLink, ptr %36, i32 0, i32 1
  store ptr %MLIST_ENTNAME24, ptr %tql_prev26, align 8
  br label %if.end

if.end:                                           ; preds = %if.else, %if.then
  %37 = load ptr, ptr %node, align 8
  %38 = load ptr, ptr %s.addr, align 8
  %free27 = getelementptr inbounds %struct.QGuestAllocator, ptr %38, i32 0, i32 5
  %39 = load ptr, ptr %free27, align 8
  store ptr %37, ptr %39, align 8
  %40 = load ptr, ptr %s.addr, align 8
  %free28 = getelementptr inbounds %struct.QGuestAllocator, ptr %40, i32 0, i32 5
  %41 = load ptr, ptr %free28, align 8
  %42 = load ptr, ptr %node, align 8
  %MLIST_ENTNAME29 = getelementptr inbounds %struct.MemBlock, ptr %42, i32 0, i32 0
  %tql_prev30 = getelementptr inbounds %struct.QTailQLink, ptr %MLIST_ENTNAME29, i32 0, i32 1
  store ptr %41, ptr %tql_prev30, align 8
  br label %do.end31

do.end31:                                         ; preds = %if.end
  %43 = load i64, ptr %page_size.addr, align 8
  %conv = trunc i64 %43 to i32
  %44 = load ptr, ptr %s.addr, align 8
  %page_size32 = getelementptr inbounds %struct.QGuestAllocator, ptr %44, i32 0, i32 3
  store i32 %conv, ptr %page_size32, align 8
  ret void
}