; Function Attrs: nounwind sspstrong uwtable
define dso_local void @alloc_init(ptr noundef captures(none) initializes((0, 4), (8, 28), (32, 48)) %s, i32 noundef %opts, i64 noundef %start, i64 noundef %end, i64 noundef %page_size) local_unnamed_addr #0 {
entry:
  store i32 %opts, ptr %s, align 8
  %start2 = getelementptr inbounds nuw i8, ptr %s, i64 8
  store i64 %start, ptr %start2, align 8
  %end3 = getelementptr inbounds nuw i8, ptr %s, i64 16
  store i64 %end, ptr %end3, align 8
  %call = tail call noalias dereferenceable_or_null(16) ptr @g_malloc_n(i64 noundef 1, i64 noundef 16) #12
  %used = getelementptr inbounds nuw i8, ptr %s, i64 32
  store ptr %call, ptr %used, align 8
  %call4 = tail call noalias dereferenceable_or_null(16) ptr @g_malloc_n(i64 noundef 1, i64 noundef 16) #12
  %free = getelementptr inbounds nuw i8, ptr %s, i64 40
  store ptr %call4, ptr %free, align 8
  %0 = load ptr, ptr %used, align 8
  store ptr null, ptr %0, align 8
  %1 = load ptr, ptr %used, align 8
  %tql_prev = getelementptr inbounds nuw i8, ptr %1, i64 8
  store ptr %1, ptr %tql_prev, align 8
  %2 = load ptr, ptr %free, align 8
  store ptr null, ptr %2, align 8
  %3 = load ptr, ptr %free, align 8
  %tql_prev12 = getelementptr inbounds nuw i8, ptr %3, i64 8
  store ptr %3, ptr %tql_prev12, align 8
  %4 = load i64, ptr %start2, align 8
  %5 = load i64, ptr %end3, align 8
  %tobool.not.i = icmp eq i64 %5, %4
  br i1 %tobool.not.i, label %mlist_new.exit, label %if.end.i

if.end.i:                                         ; preds = %entry
  %sub = sub i64 %5, %4
  %call.i = tail call noalias dereferenceable_or_null(32) ptr @g_malloc0_n(i64 noundef 1, i64 noundef 32) #12
  %addr1.i = getelementptr inbounds nuw i8, ptr %call.i, i64 24
  store i64 %4, ptr %addr1.i, align 8
  %size2.i = getelementptr inbounds nuw i8, ptr %call.i, i64 16
  store i64 %sub, ptr %size2.i, align 8
  %.pre = load ptr, ptr %free, align 8
  br label %mlist_new.exit

mlist_new.exit:                                   ; preds = %entry, %if.end.i
  %6 = phi ptr [ %.pre, %if.end.i ], [ %3, %entry ]
  %retval.0.i = phi ptr [ %call.i, %if.end.i ], [ null, %entry ]
  %7 = load ptr, ptr %6, align 8
  store ptr %7, ptr %retval.0.i, align 8
  %cmp.not = icmp eq ptr %7, null
  %. = select i1 %cmp.not, ptr %6, ptr %7
  %tql_prev26 = getelementptr inbounds nuw i8, ptr %., i64 8
  store ptr %retval.0.i, ptr %tql_prev26, align 8
  %8 = load ptr, ptr %free, align 8
  store ptr %retval.0.i, ptr %8, align 8
  %9 = load ptr, ptr %free, align 8
  %tql_prev30 = getelementptr inbounds nuw i8, ptr %retval.0.i, i64 8
  store ptr %9, ptr %tql_prev30, align 8
  %conv = trunc i64 %page_size to i32
  %page_size32 = getelementptr inbounds nuw i8, ptr %s, i64 24
  store i32 %conv, ptr %page_size32, align 8
  ret void
}